target datalayout = "e-m:e-p270:32:32-p271:32:32-p272:64:64-i64:64-i128:128-f80:128-n8:16:32:64-S128"
target triple = "x86_64-pc-linux-gnu"

@.str.45 = private unnamed_addr constant [8 x i8] c"path:%s\00", align 1

; Function Attrs: nounwind uwtable
define dso_local void @pmix_info_show_path(ptr noundef %0, ptr noundef %1) #0 {
  %3 = alloca ptr, align 8
  %4 = alloca ptr, align 8
  %5 = alloca ptr, align 8
  %6 = alloca ptr, align 8
  %7 = alloca i32, align 4
  %8 = alloca i32, align 4
  %9 = alloca i32, align 4
  store ptr %0, ptr %3, align 8, !tbaa !24
  store ptr %1, ptr %4, align 8, !tbaa !24
  call void @llvm.lifetime.start.p0(i64 8, ptr %5) #13
  call void @llvm.lifetime.start.p0(i64 8, ptr %6) #13
  %10 = load ptr, ptr %3, align 8, !tbaa !24
  %11 = call noalias ptr @strdup(ptr noundef %10) #13
  store ptr %11, ptr %5, align 8, !tbaa !24
  call void @llvm.lifetime.start.p0(i64 4, ptr %7) #13
  %12 = call ptr @__ctype_toupper_loc() #15
  %13 = load ptr, ptr %12, align 8, !tbaa !52
  %14 = load ptr, ptr %5, align 8, !tbaa !24
  %15 = getelementptr inbounds i8, ptr %14, i64 0
  %16 = load i8, ptr %15, align 1, !tbaa !54
  %17 = sext i8 %16 to i32
  %18 = sext i32 %17 to i64
  %19 = getelementptr inbounds i32, ptr %13, i64 %18
  %20 = load i32, ptr %19, align 4, !tbaa !18
  store i32 %20, ptr %7, align 4, !tbaa !18
  %21 = load i32, ptr %7, align 4, !tbaa !18
  store i32 %21, ptr %8, align 4, !tbaa !18
  call void @llvm.lifetime.end.p0(i64 4, ptr %7) #13
  %22 = load i32, ptr %8, align 4, !tbaa !18
  %23 = trunc i32 %22 to i8
  %24 = load ptr, ptr %5, align 8, !tbaa !24
  %25 = getelementptr inbounds i8, ptr %24, i64 0
  store i8 %23, ptr %25, align 1, !tbaa !54
  %26 = load ptr, ptr %3, align 8, !tbaa !24
  %27 = call i32 (ptr, ptr, ...) @asprintf(ptr noundef %6, ptr noundef @.str.45, ptr noundef %26) #13
  %28 = icmp sgt i32 0, %27
  br i1 %28, label %29, label %31

29:                                               ; preds = %2
  %30 = load ptr, ptr %5, align 8, !tbaa !24
  call void @free(ptr noundef %30) #13
  store i32 1, ptr %9, align 4
  br label %37

31:                                               ; preds = %2
  %32 = load ptr, ptr %5, align 8, !tbaa !24
  %33 = load ptr, ptr %6, align 8, !tbaa !24
  %34 = load ptr, ptr %4, align 8, !tbaa !24
  call void @pmix_info_out(ptr noundef %32, ptr noundef %33, ptr noundef %34)
  %35 = load ptr, ptr %5, align 8, !tbaa !24
  call void @free(ptr noundef %35) #13
  %36 = load ptr, ptr %6, align 8, !tbaa !24
  call void @free(ptr noundef %36) #13
  store i32 0, ptr %9, align 4
  br label %37

37:                                               ; preds = %31, %29
  call void @llvm.lifetime.end.p0(i64 8, ptr %6) #13
  call void @llvm.lifetime.end.p0(i64 8, ptr %5) #13
  %38 = load i32, ptr %9, align 4
  switch i32 %38, label %40 [
    i32 0, label %39
    i32 1, label %39
  ]

39:                                               ; preds = %37, %37
  ret void

40:                                               ; preds = %37
  unreachable
}