; Function Attrs: nounwind uwtable
define dso_local void @pmix_info_show_path(ptr noundef %0, ptr noundef %1) local_unnamed_addr #2 {
  %3 = alloca ptr, align 8
  call void @llvm.lifetime.start.p0(i64 8, ptr nonnull %3) #17
  %4 = tail call noalias ptr @strdup(ptr noundef %0) #17
  %5 = tail call ptr @__ctype_toupper_loc() #18
  %6 = load ptr, ptr %5, align 8, !tbaa !52
  %7 = load i8, ptr %4, align 1, !tbaa !54
  %8 = sext i8 %7 to i64
  %9 = getelementptr inbounds i32, ptr %6, i64 %8
  %10 = load i32, ptr %9, align 4, !tbaa !18
  %11 = trunc i32 %10 to i8
  store i8 %11, ptr %4, align 1, !tbaa !54
  %12 = call i32 (ptr, ptr, ...) @asprintf(ptr noundef nonnull %3, ptr noundef nonnull @.str.45, ptr noundef %0) #17
  %13 = icmp slt i32 %12, 0
  br i1 %13, label %17, label %14

14:                                               ; preds = %2
  %15 = load ptr, ptr %3, align 8, !tbaa !29
  call void @pmix_info_out(ptr noundef nonnull %4, ptr noundef %15, ptr noundef %1)
  call void @free(ptr noundef nonnull %4) #17
  %16 = load ptr, ptr %3, align 8, !tbaa !29
  br label %17

17:                                               ; preds = %2, %14
  %.sink = phi ptr [ %16, %14 ], [ %4, %2 ]
  call void @free(ptr noundef %.sink) #17
  call void @llvm.lifetime.end.p0(i64 8, ptr nonnull %3) #17
  ret void
}